; Function Attrs: mustprogress uwtable
define void @_ZN6duckdb19ConvertParquetStatsERKNS_11LogicalTypeERKNS_19ParquetColumnSchemaEbRKNSt7__cxx1112basic_stringIcSt11char_traitsIcESaIcEEE(ptr dead_on_unwind noalias writable sret(%"class.duckdb::Value") align 8 %0, ptr noundef nonnull align 8 dereferenceable(24) %1, ptr noundef nonnull align 8 dereferenceable(144) %2, i1 noundef zeroext %3, ptr noundef nonnull align 8 dereferenceable(32) %4) local_unnamed_addr #3 personality ptr @__gxx_personality_v0 {
  %6 = alloca %"struct.duckdb::LogicalType", align 8
  %7 = alloca %"class.duckdb::Value", align 8
  %8 = alloca %"struct.duckdb::LogicalType", align 8
  br i1 %3, label %13, label %9

9:                                                ; preds = %5
  call void @_ZN6duckdb11LogicalTypeC1ENS_13LogicalTypeIdE(ptr noundef nonnull align 8 dereferenceable(24) %6, i8 noundef zeroext 25)
  invoke void @_ZN6duckdb5ValueC1ENS_11LogicalTypeE(ptr noundef nonnull align 8 dereferenceable(64) %0, ptr noundef nonnull %6)
          to label %10 unwind label %11

10:                                               ; preds = %9
  call void @_ZN6duckdb11LogicalTypeD1Ev(ptr noundef nonnull align 8 dereferenceable(24) %6) #27
  br label %21

11:                                               ; preds = %9
  %12 = landingpad { ptr, i32 }
          cleanup
  call void @_ZN6duckdb11LogicalTypeD1Ev(ptr noundef nonnull align 8 dereferenceable(24) %6) #27
  br label %22

13:                                               ; preds = %5
  call void @llvm.lifetime.start.p0(i64 64, ptr nonnull %7) #27
  call void @_ZN6duckdb22ParquetStatisticsUtils12ConvertValueERKNS_11LogicalTypeERKNS_19ParquetColumnSchemaERKNSt7__cxx1112basic_stringIcSt11char_traitsIcESaIcEEE(ptr dead_on_unwind nonnull writable sret(%"class.duckdb::Value") align 8 %7, ptr noundef nonnull align 8 dereferenceable(24) %1, ptr noundef nonnull align 8 dereferenceable(144) %2, ptr noundef nonnull align 8 dereferenceable(32) %4)
  call void @llvm.lifetime.start.p0(i64 24, ptr nonnull %8) #27
  invoke void @_ZN6duckdb11LogicalTypeC1ENS_13LogicalTypeIdE(ptr noundef nonnull align 8 dereferenceable(24) %8, i8 noundef zeroext 25)
          to label %14 unwind label %16

14:                                               ; preds = %13
  invoke void @_ZNK6duckdb5Value13DefaultCastAsERKNS_11LogicalTypeEb(ptr dead_on_unwind writable sret(%"class.duckdb::Value") align 8 %0, ptr noundef nonnull align 8 dereferenceable(64) %7, ptr noundef nonnull align 8 dereferenceable(24) %8, i1 noundef zeroext false)
          to label %15 unwind label %18

15:                                               ; preds = %14
  call void @_ZN6duckdb11LogicalTypeD1Ev(ptr noundef nonnull align 8 dereferenceable(24) %8) #27
  call void @llvm.lifetime.end.p0(i64 24, ptr nonnull %8) #27
  call void @_ZN6duckdb5ValueD1Ev(ptr noundef nonnull align 8 dereferenceable(64) %7) #27
  call void @llvm.lifetime.end.p0(i64 64, ptr nonnull %7) #27
  br label %21

16:                                               ; preds = %13
  %17 = landingpad { ptr, i32 }
          cleanup
  br label %20

18:                                               ; preds = %14
  %19 = landingpad { ptr, i32 }
          cleanup
  call void @_ZN6duckdb11LogicalTypeD1Ev(ptr noundef nonnull align 8 dereferenceable(24) %8) #27
  br label %20

20:                                               ; preds = %18, %16
  %.pn = phi { ptr, i32 } [ %19, %18 ], [ %17, %16 ]
  call void @llvm.lifetime.end.p0(i64 24, ptr nonnull %8) #27
  call void @_ZN6duckdb5ValueD1Ev(ptr noundef nonnull align 8 dereferenceable(64) %7) #27
  call void @llvm.lifetime.end.p0(i64 64, ptr nonnull %7) #27
  br label %22

21:                                               ; preds = %15, %10
  ret void

22:                                               ; preds = %20, %11
  %.pn.pn = phi { ptr, i32 } [ %.pn, %20 ], [ %12, %11 ]
  resume { ptr, i32 } %.pn.pn
}